target datalayout = "e-m:e-p270:32:32-p271:32:32-p272:64:64-i64:64-i128:128-f80:128-n8:16:32:64-S128"
target triple = "x86_64-pc-linux-gnu"

@prte_getpagesize.page_size = internal global i32 -1, align 4

; Function Attrs: nounwind uwtable
define i32 @prte_getpagesize() #0 {
  %1 = alloca i32, align 4
  %2 = load i32, ptr @prte_getpagesize.page_size, align 4, !tbaa !8
  %3 = icmp ne i32 %2, -1
  br i1 %3, label %4, label %6

4:                                                ; preds = %0
  %5 = load i32, ptr @prte_getpagesize.page_size, align 4, !tbaa !8
  store i32 %5, ptr %1, align 4
  br label %9

6:                                                ; preds = %0
  %7 = call i64 @sysconf(i32 noundef 30) #5
  %8 = trunc i64 %7 to i32
  store i32 %8, ptr @prte_getpagesize.page_size, align 4, !tbaa !8
  store i32 %8, ptr %1, align 4
  br label %9

9:                                                ; preds = %6, %4
  %10 = load i32, ptr %1, align 4
  ret i32 %10
}