; Function Attrs: nounwind uwtable
define i32 @prte_getpagesize() local_unnamed_addr #0 {
  %1 = load i32, ptr @prte_getpagesize.page_size, align 4, !tbaa !22
  %.not = icmp eq i32 %1, -1
  br i1 %.not, label %2, label %5

2:                                                ; preds = %0
  %3 = tail call i64 @sysconf(i32 noundef 30) #7
  %4 = trunc i64 %3 to i32
  store i32 %4, ptr @prte_getpagesize.page_size, align 4, !tbaa !22
  br label %5

5:                                                ; preds = %0, %2
  %.0 = phi i32 [ %4, %2 ], [ %1, %0 ]
  ret i32 %.0
}